Certificate:
    Data:
        Version: 3 (0x2)
        Serial Number: 4096 (0x1000)
    Signature Algorithm: sha256WithRSAEncryption
        Issuer: C=US, O=ItalyPaleAle Dev, OU=Certs, CN=ItalyPaleAle Dev root CA/emailAddress=noemail@italypaleale
        Validity
            Not Before: Feb  9 23:29:53 2020 GMT
            Not After : Feb  8 23:29:53 2022 GMT
        Subject: C=US, ST=Washington, L=Seattle, O=LaCasetta, OU=Certs, CN=statiko.local
        Subject Public Key Info:
            Public Key Algorithm: rsaEncryption
                Public-Key: (2048 bit)
                Modulus:
                    00:c0:ba:41:1e:90:96:0c:d8:17:8a:7b:b6:88:c5:
                    1c:2d:f9:cc:eb:79:db:ae:fa:64:82:ca:4e:51:53:
                    ae:11:46:85:a6:f0:f7:e3:dc:64:ba:c1:4d:29:d8:
                    17:42:a6:90:4e:a0:e7:03:2f:5f:dd:1e:4a:79:f2:
                    e5:69:51:fc:a3:3f:49:3e:05:40:c6:c1:44:e0:29:
                    d8:37:b8:5a:ed:5c:42:65:b7:8c:e9:1e:a4:3c:68:
                    17:a0:a1:32:49:95:e9:33:96:5f:e2:31:7b:41:2a:
                    f6:e6:f0:b5:5f:49:a2:85:78:64:52:41:df:27:40:
                    f4:f0:c7:a9:b6:38:8b:88:84:6e:d9:6e:c3:f4:43:
                    3b:a2:34:49:fb:f4:9f:dd:5d:8b:2c:82:eb:68:bb:
                    ca:a6:3c:05:d8:47:c6:10:b6:1e:9f:49:73:16:fd:
                    3a:e6:4a:45:9c:67:b0:50:38:2b:c9:73:72:12:82:
                    dc:d8:c4:03:28:a5:91:55:86:63:48:a4:b2:4c:4a:
                    1c:6a:34:8f:82:71:2a:f8:68:5f:45:98:64:53:97:
                    ab:eb:bd:9f:a4:23:57:00:9d:a8:db:14:d6:af:b1:
                    10:a7:0f:f4:15:0b:a1:b5:f6:da:9d:53:e1:24:00:
                    5d:54:76:69:ca:ed:c4:3f:58:43:de:35:e4:c0:72:
                    47:93
                Exponent: 65537 (0x10001)
        X509v3 extensions:
            X509v3 Basic Constraints: 
                CA:FALSE
            X509v3 Key Usage: 
                Non Repudiation, Key Encipherment, Data Encipherment
            X509v3 Extended Key Usage: 
                TLS Web Server Authentication, TLS Web Client Authentication
            X509v3 Subject Alternative Name: 
                DNS:statiko.local
    Signature Algorithm: sha256WithRSAEncryption
         b4:e5:56:86:9c:a1:0b:19:8d:a7:bd:5d:94:27:38:7d:a7:34:
         b2:04:49:a2:28:21:09:6b:45:c1:67:8f:30:97:81:7b:cf:5e:
         65:bd:ac:b9:72:73:e1:75:59:df:3a:78:8f:df:01:59:b3:9b:
         3d:bf:32:9a:f6:75:af:68:e8:56:20:25:67:16:57:71:c2:79:
         ca:c8:ad:6b:37:4a:66:5e:59:fd:5c:d7:7a:9a:6e:f4:02:ae:
         94:df:cd:f6:d8:3e:0f:37:04:84:79:54:7d:4b:65:78:5d:f5:
         df:dc:e3:34:28:61:e4:80:bc:7b:29:33:f8:05:a7:94:ce:9b:
         4d:fb:3a:0b:57:97:98:27:55:2c:3c:46:ca:35:45:a8:4b:28:
         f5:73:08:44:fa:4c:25:8c:81:8b:a5:b7:d4:3e:24:d1:14:f6:
         b4:4e:2e:9a:f7:57:15:2d:a2:0b:ec:0a:0d:24:6c:ce:f3:15:
         25:52:40:71:91:ff:ca:79:d8:8a:64:27:8c:1a:d4:af:e9:24:
         ed:8b:d4:f3:ee:f1:8a:75:4a:19:ad:65:15:ae:a1:07:b1:1f:
         b4:b4:d1:f7:c3:4c:81:e8:a3:f2:b7:ee:47:18:a6:e9:c9:ed:
         0b:2b:cd:72:cb:3b:dd:28:77:f8:0f:82:38:46:48:9a:5e:83:
         ba:e4:16:ab:e5:3b:37:85:0a:9b:0f:e5:09:0e:ea:c9:77:82:
         c6:d4:cb:d1:07:5a:01:86:30:bc:ec:2f:86:7c:5b:b0:8c:54:
         cc:3a:5b:4c:4f:2d:0c:71:83:d4:a7:fa:78:cb:83:62:11:7c:
         a5:b1:6d:30:28:11:d6:d2:98:0b:ff:50:56:a8:29:fc:f0:ff:
         2f:1a:08:c4:ea:5b:c6:df:20:56:c7:31:5a:eb:d9:ce:98:25:
         da:75:35:01:94:04:01:92:dd:74:0a:20:b3:78:10:5e:16:6a:
         49:5e:5a:9b:98:0c:50:da:a1:d0:8b:6e:92:ad:79:01:e7:61:
         a8:52:f2:27:5e:b1:69:28:33:10:5f:9b:44:d5:46:c4:80:87:
         81:fc:8f:18:c2:c8:d2:00:65:b4:5f:e9:37:1f:9b:f2:3a:e5:
         0d:39:81:52:2b:a9:95:f3:f6:69:a5:69:0b:c9:e3:28:dc:5b:
         60:08:d8:75:50:ab:60:f1:66:48:41:b2:8e:5b:c0:d4:20:61:
         07:d5:8e:8a:96:bc:43:e6:78:63:9a:e5:9a:d1:71:e7:01:9b:
         1d:cf:ef:b4:71:fc:2a:36:47:26:b3:a2:fb:07:b2:c3:bc:91:
         3c:77:b0:2b:f7:8f:c8:68:f8:0b:43:e6:d8:2c:9e:e3:ef:14:
         32:cd:cb:cf:f5:59:f1:29
-----BEGIN CERTIFICATE-----
MIIEwDCCAqigAwIBAgICEAAwDQYJKoZIhvcNAQELBQAwgYAxCzAJBgNVBAYTAlVT
MRkwFwYDVQQKDBBJdGFseVBhbGVBbGUgRGV2MQ4wDAYDVQQLDAVDZXJ0czEhMB8G
A1UEAwwYSXRhbHlQYWxlQWxlIERldiByb290IENBMSMwIQYJKoZIhvcNAQkBFhRu
b2VtYWlsQGl0YWx5cGFsZWFsZTAeFw0yMDAyMDkyMzI5NTNaFw0yMjAyMDgyMzI5
NTNaMHAxCzAJBgNVBAYTAlVTMRMwEQYDVQQIDApXYXNoaW5ndG9uMRAwDgYDVQQH
DAdTZWF0dGxlMRIwEAYDVQQKDAlMYUNhc2V0dGExDjAMBgNVBAsMBUNlcnRzMRYw
FAYDVQQDDA1zdGF0aWtvLmxvY2FsMIIBIjANBgkqhkiG9w0BAQEFAAOCAQ8AMIIB
CgKCAQEAwLpBHpCWDNgXinu2iMUcLfnM63nbrvpkgspOUVOuEUaFpvD349xkusFN
KdgXQqaQTqDnAy9f3R5KefLlaVH8oz9JPgVAxsFE4CnYN7ha7VxCZbeM6R6kPGgX
oKEySZXpM5Zf4jF7QSr25vC1X0mihXhkUkHfJ0D08MeptjiLiIRu2W7D9EM7ojRJ
+/Sf3V2LLILraLvKpjwF2EfGELYen0lzFv065kpFnGewUDgryXNyEoLc2MQDKKWR
VYZjSKSyTEocajSPgnEq+GhfRZhkU5er672fpCNXAJ2o2xTWr7EQpw/0FQuhtfba
nVPhJABdVHZpyu3EP1hD3jXkwHJHkwIDAQABo1MwUTAJBgNVHRMEAjAAMAsGA1Ud
DwQEAwIEcDAdBgNVHSUEFjAUBggrBgEFBQcDAQYIKwYBBQUHAwIwGAYDVR0RBBEw
D4INc3RhdGlrby5sb2NhbDANBgkqhkiG9w0BAQsFAAOCAgEAtOVWhpyhCxmNp71d
lCc4fac0sgRJoighCWtFwWePMJeBe89eZb2suXJz4XVZ3zp4j98BWbObPb8ymvZ1
r2joViAlZxZXccJ5ysitazdKZl5Z/VzXeppu9AKulN/N9tg+DzcEhHlUfUtleF31
39zjNChh5IC8eykz+AWnlM6bTfs6C1eXmCdVLDxGyjVFqEso9XMIRPpMJYyBi6W3
1D4k0RT2tE4umvdXFS2iC+wKDSRszvMVJVJAcZH/ynnYimQnjBrUr+kk7YvU8+7x
inVKGa1lFa6hB7EftLTR98NMgeij8rfuRxim6cntCyvNcss73Sh3+A+COEZIml6D
uuQWq+U7N4UKmw/lCQ7qyXeCxtTL0QdaAYYwvOwvhnxbsIxUzDpbTE8tDHGD1Kf6
eMuDYhF8pbFtMCgR1tKYC/9QVqgp/PD/LxoIxOpbxt8gVscxWuvZzpgl2nU1AZQE
AZLddAogs3gQXhZqSV5am5gMUNqh0Itukq15AedhqFLyJ16xaSgzEF+bRNVGxICH
gfyPGMLI0gBltF/pNx+b8jrlDTmBUiuplfP2aaVpC8njKNxbYAjYdVCrYPFmSEGy
jlvA1CBhB9WOipa8Q+Z4Y5rlmtFx5wGbHc/vtHH8KjZHJrOi+weyw7yRPHewK/eP
yGj4C0Pm2Cye4+8UMs3Lz/VZ8Sk=
-----END CERTIFICATE-----
